; Function Attrs: mustprogress nounwind uwtable
define dso_local noundef zeroext i1 @_ZNK5clang14ObjCMethodDecl39isThisDeclarationADesignatedInitializerEv(ptr noundef nonnull align 8 dereferenceable(136) %0) local_unnamed_addr #0 align 2 {
  %2 = tail call noundef i32 @_ZNK5clang14ObjCMethodDecl15getMethodFamilyEv(ptr noundef nonnull align 8 dereferenceable(136) %0)
  %3 = icmp eq i32 %2, 3
  br i1 %3, label %4, label %_ZNK5clang4Decl7hasAttrINS_29ObjCDesignatedInitializerAttrEEEbv.exit

4:                                                ; preds = %1
  %5 = getelementptr inbounds nuw i8, ptr %0, i64 28
  %6 = load i32, ptr %5, align 4
  %7 = and i32 %6, 256
  %.not.i = icmp eq i32 %7, 0
  br i1 %.not.i, label %_ZNK5clang4Decl7hasAttrINS_29ObjCDesignatedInitializerAttrEEEbv.exit, label %8

8:                                                ; preds = %4
  %9 = tail call noundef nonnull align 8 dereferenceable(48) ptr @_ZNK5clang4Decl8getAttrsEv(ptr noundef nonnull align 8 dereferenceable(33) %0) #23
  %10 = load ptr, ptr %9, align 8
  %11 = tail call noundef i64 @_ZNK4llvm15SmallVectorBaseIjE4sizeEv(ptr noundef nonnull align 8 dereferenceable(16) %9) #23
  %12 = getelementptr inbounds ptr, ptr %10, i64 %11
  %13 = icmp sgt i64 %11, 0
  br i1 %13, label %.lr.ph.i.i.i.i.i, label %20

.lr.ph.i.i.i.i.i:                                 ; preds = %8, %18
  %.sroa.07.1.i.i.i.i = phi ptr [ %19, %18 ], [ %10, %8 ]
  %14 = load ptr, ptr %.sroa.07.1.i.i.i.i, align 8
  %15 = getelementptr inbounds nuw i8, ptr %14, i64 32
  %16 = load i16, ptr %15, align 8
  %17 = icmp eq i16 %16, 403
  br i1 %17, label %_ZN5clang15hasSpecificAttrINS_29ObjCDesignatedInitializerAttrEN4llvm11SmallVectorIPNS_4AttrELj4EEEEEbRKT0_.exit.i, label %18

18:                                               ; preds = %.lr.ph.i.i.i.i.i
  %19 = getelementptr inbounds i8, ptr %.sroa.07.1.i.i.i.i, i64 8
  %.not.i.i.i.i.i = icmp eq ptr %19, %12
  br i1 %.not.i.i.i.i.i, label %_ZN5clang15hasSpecificAttrINS_29ObjCDesignatedInitializerAttrEN4llvm11SmallVectorIPNS_4AttrELj4EEEEEbRKT0_.exit.i, label %.lr.ph.i.i.i.i.i, !llvm.loop !33

20:                                               ; preds = %8
  %.not2.i3.i.i.i.i = icmp eq i64 %11, 0
  br i1 %.not2.i3.i.i.i.i, label %_ZN5clang15hasSpecificAttrINS_29ObjCDesignatedInitializerAttrEN4llvm11SmallVectorIPNS_4AttrELj4EEEEEbRKT0_.exit.i, label %.lr.ph.i4.i.i.i.i

.lr.ph.i4.i.i.i.i:                                ; preds = %20, %25
  %.sroa.0.1.i.i.i.i = phi ptr [ %26, %25 ], [ %12, %20 ]
  %21 = load ptr, ptr %.sroa.0.1.i.i.i.i, align 8
  %22 = getelementptr inbounds nuw i8, ptr %21, i64 32
  %23 = load i16, ptr %22, align 8
  %24 = icmp eq i16 %23, 403
  br i1 %24, label %_ZN5clang15hasSpecificAttrINS_29ObjCDesignatedInitializerAttrEN4llvm11SmallVectorIPNS_4AttrELj4EEEEEbRKT0_.exit.i, label %25

25:                                               ; preds = %.lr.ph.i4.i.i.i.i
  %26 = getelementptr inbounds i8, ptr %.sroa.0.1.i.i.i.i, i64 8
  %.not.i5.i.i.i.i = icmp eq ptr %26, %10
  br i1 %.not.i5.i.i.i.i, label %_ZN5clang15hasSpecificAttrINS_29ObjCDesignatedInitializerAttrEN4llvm11SmallVectorIPNS_4AttrELj4EEEEEbRKT0_.exit.i, label %.lr.ph.i4.i.i.i.i, !llvm.loop !33

_ZN5clang15hasSpecificAttrINS_29ObjCDesignatedInitializerAttrEN4llvm11SmallVectorIPNS_4AttrELj4EEEEEbRKT0_.exit.i: ; preds = %25, %.lr.ph.i4.i.i.i.i, %18, %.lr.ph.i.i.i.i.i, %20
  %.sroa.07.0.i.i.i.i = phi ptr [ %10, %20 ], [ %12, %18 ], [ %.sroa.07.1.i.i.i.i, %.lr.ph.i.i.i.i.i ], [ %10, %.lr.ph.i4.i.i.i.i ], [ %10, %25 ]
  %.sroa.0.0.i.i.i.i = phi ptr [ %10, %20 ], [ %12, %.lr.ph.i.i.i.i.i ], [ %12, %18 ], [ %10, %25 ], [ %.sroa.0.1.i.i.i.i, %.lr.ph.i4.i.i.i.i ]
  %27 = icmp ne ptr %.sroa.07.0.i.i.i.i, %.sroa.0.0.i.i.i.i
  br label %_ZNK5clang4Decl7hasAttrINS_29ObjCDesignatedInitializerAttrEEEbv.exit

_ZNK5clang4Decl7hasAttrINS_29ObjCDesignatedInitializerAttrEEEbv.exit: ; preds = %_ZN5clang15hasSpecificAttrINS_29ObjCDesignatedInitializerAttrEN4llvm11SmallVectorIPNS_4AttrELj4EEEEEbRKT0_.exit.i, %4, %1
  %28 = phi i1 [ false, %1 ], [ false, %4 ], [ %27, %_ZN5clang15hasSpecificAttrINS_29ObjCDesignatedInitializerAttrEN4llvm11SmallVectorIPNS_4AttrELj4EEEEEbRKT0_.exit.i ]
  ret i1 %28
}